target datalayout = "e-m:e-p270:32:32-p271:32:32-p272:64:64-i64:64-i128:128-f80:128-n8:16:32:64-S128"
target triple = "x86_64-pc-linux-gnu"

%struct.CbsP_Par_t_ = type { i32, i32, i32, i32, i32, i32, i32, i32, i32, i32, i32, i32, i32, i32, i32, i32, i32, i32, i32, i32, i32, i32, i32, i32, i64, i64, i64, i64, i64, i64, i64, i64, i64, i32, i32, i32 }
%struct.CbsP_Man_t_ = type { %struct.CbsP_Par_t_, ptr, %struct.CbsP_Que_t_, %struct.CbsP_Que_t_, %struct.CbsP_Que_t_, ptr, ptr, ptr, ptr, ptr, i32, i32, i32, i32, i32, i32, i32, i64, i64, i64, i64 }
%struct.CbsP_Que_t_ = type { i32, i32, i32, ptr }
%struct.Vec_Int_t_ = type { i32, i32, ptr }
%struct.Gia_Man_t_ = type { ptr, ptr, i32, i32, i32, i32, ptr, ptr, i32, i32, i32, ptr, ptr, %struct.Vec_Int_t_, %struct.Vec_Int_t_, i32, i32, i32, %struct.Vec_Int_t_, ptr, ptr, ptr, i32, i32, i32, i32, ptr, ptr, ptr, ptr, ptr, i32, i32, ptr, i32, ptr, ptr, ptr, ptr, ptr, ptr, ptr, ptr, ptr, ptr, ptr, ptr, ptr, ptr, ptr, ptr, ptr, ptr, %struct.Vec_Int_t_, %struct.Vec_Int_t_, ptr, ptr, ptr, ptr, ptr, ptr, ptr, ptr, ptr, ptr, ptr, ptr, ptr, ptr, ptr, ptr, ptr, ptr, ptr, ptr, ptr, i32, float, float, ptr, ptr, i32, ptr, ptr, ptr, ptr, ptr, ptr, ptr, ptr, ptr, ptr, ptr, ptr, ptr, ptr, ptr, i64, i64, ptr, ptr, i32, i32, i32, i32, i32, i32, i32, i32, i32, i32, i32, i32, ptr, ptr, ptr, ptr, ptr, ptr, ptr, ptr, i32, i32, i32, ptr, i32, i32, ptr, ptr, ptr, ptr, ptr, ptr, i32, i32, ptr, %struct.Vec_Int_t_, %struct.Vec_Int_t_, %struct.Vec_Int_t_, ptr, ptr, ptr, i32, i32, i32, i32, ptr, ptr, ptr, ptr, ptr }

; Function Attrs: inlinehint nounwind uwtable
define internal void @Vec_IntGrow(ptr noundef %0, i32 noundef %1) #6 {
  %3 = alloca ptr, align 8
  %4 = alloca i32, align 4
  store ptr %0, ptr %3, align 8, !tbaa !65
  store i32 %1, ptr %4, align 4, !tbaa !38
  %5 = load ptr, ptr %3, align 8, !tbaa !65
  %6 = getelementptr inbounds nuw %struct.Vec_Int_t_, ptr %5, i32 0, i32 0
  %7 = load i32, ptr %6, align 8, !tbaa !69
  %8 = load i32, ptr %4, align 4, !tbaa !38
  %9 = icmp sge i32 %7, %8
  br i1 %9, label %10, label %11

10:                                               ; preds = %2
  br label %36

11:                                               ; preds = %2
  %12 = load ptr, ptr %3, align 8, !tbaa !65
  %13 = getelementptr inbounds nuw %struct.Vec_Int_t_, ptr %12, i32 0, i32 2
  %14 = load ptr, ptr %13, align 8, !tbaa !70
  %15 = icmp ne ptr %14, null
  br i1 %15, label %16, label %24

16:                                               ; preds = %11
  %17 = load ptr, ptr %3, align 8, !tbaa !65
  %18 = getelementptr inbounds nuw %struct.Vec_Int_t_, ptr %17, i32 0, i32 2
  %19 = load ptr, ptr %18, align 8, !tbaa !70
  %20 = load i32, ptr %4, align 4, !tbaa !38
  %21 = sext i32 %20 to i64
  %22 = mul i64 4, %21
  %23 = call ptr @realloc(ptr noundef %19, i64 noundef %22) #15
  br label %29

24:                                               ; preds = %11
  %25 = load i32, ptr %4, align 4, !tbaa !38
  %26 = sext i32 %25 to i64
  %27 = mul i64 4, %26
  %28 = call noalias ptr @malloc(i64 noundef %27) #13
  br label %29

29:                                               ; preds = %24, %16
  %30 = phi ptr [ %23, %16 ], [ %28, %24 ]
  %31 = load ptr, ptr %3, align 8, !tbaa !65
  %32 = getelementptr inbounds nuw %struct.Vec_Int_t_, ptr %31, i32 0, i32 2
  store ptr %30, ptr %32, align 8, !tbaa !70
  %33 = load i32, ptr %4, align 4, !tbaa !38
  %34 = load ptr, ptr %3, align 8, !tbaa !65
  %35 = getelementptr inbounds nuw %struct.Vec_Int_t_, ptr %34, i32 0, i32 0
  store i32 %33, ptr %35, align 8, !tbaa !69
  br label %36

36:                                               ; preds = %29, %10
  ret void
}

; Function Attrs: inlinehint nounwind uwtable
define internal void @Vec_IntPush(ptr noundef %0, i32 noundef %1) #6 {
  %3 = alloca ptr, align 8
  %4 = alloca i32, align 4
  store ptr %0, ptr %3, align 8, !tbaa !65
  store i32 %1, ptr %4, align 4, !tbaa !38
  %5 = load ptr, ptr %3, align 8, !tbaa !65
  %6 = getelementptr inbounds nuw %struct.Vec_Int_t_, ptr %5, i32 0, i32 1
  %7 = load i32, ptr %6, align 4, !tbaa !66
  %8 = load ptr, ptr %3, align 8, !tbaa !65
  %9 = getelementptr inbounds nuw %struct.Vec_Int_t_, ptr %8, i32 0, i32 0
  %10 = load i32, ptr %9, align 8, !tbaa !69
  %11 = icmp eq i32 %7, %10
  br i1 %11, label %12, label %26

12:                                               ; preds = %2
  %13 = load ptr, ptr %3, align 8, !tbaa !65
  %14 = getelementptr inbounds nuw %struct.Vec_Int_t_, ptr %13, i32 0, i32 0
  %15 = load i32, ptr %14, align 8, !tbaa !69
  %16 = icmp slt i32 %15, 16
  br i1 %16, label %17, label %19

17:                                               ; preds = %12
  %18 = load ptr, ptr %3, align 8, !tbaa !65
  call void @Vec_IntGrow(ptr noundef %18, i32 noundef 16)
  br label %25

19:                                               ; preds = %12
  %20 = load ptr, ptr %3, align 8, !tbaa !65
  %21 = load ptr, ptr %3, align 8, !tbaa !65
  %22 = getelementptr inbounds nuw %struct.Vec_Int_t_, ptr %21, i32 0, i32 0
  %23 = load i32, ptr %22, align 8, !tbaa !69
  %24 = mul nsw i32 2, %23
  call void @Vec_IntGrow(ptr noundef %20, i32 noundef %24)
  br label %25

25:                                               ; preds = %19, %17
  br label %26

26:                                               ; preds = %25, %2
  %27 = load i32, ptr %4, align 4, !tbaa !38
  %28 = load ptr, ptr %3, align 8, !tbaa !65
  %29 = getelementptr inbounds nuw %struct.Vec_Int_t_, ptr %28, i32 0, i32 2
  %30 = load ptr, ptr %29, align 8, !tbaa !70
  %31 = load ptr, ptr %3, align 8, !tbaa !65
  %32 = getelementptr inbounds nuw %struct.Vec_Int_t_, ptr %31, i32 0, i32 1
  %33 = load i32, ptr %32, align 4, !tbaa !66
  %34 = add nsw i32 %33, 1
  store i32 %34, ptr %32, align 4, !tbaa !66
  %35 = sext i32 %33 to i64
  %36 = getelementptr inbounds i32, ptr %30, i64 %35
  store i32 %27, ptr %36, align 4, !tbaa !38
  ret void
}

; Function Attrs: inlinehint nounwind uwtable
define internal i32 @Abc_Var2Lit(i32 noundef %0, i32 noundef %1) #6 {
  %3 = alloca i32, align 4
  %4 = alloca i32, align 4
  store i32 %0, ptr %3, align 4, !tbaa !38
  store i32 %1, ptr %4, align 4, !tbaa !38
  %5 = load i32, ptr %3, align 4, !tbaa !38
  %6 = load i32, ptr %3, align 4, !tbaa !38
  %7 = add nsw i32 %5, %6
  %8 = load i32, ptr %4, align 4, !tbaa !38
  %9 = add nsw i32 %7, %8
  ret i32 %9
}

; Function Attrs: inlinehint nounwind uwtable
define internal i32 @CbsP_VarValue(ptr noundef %0) #6 {
  %2 = alloca ptr, align 8
  store ptr %0, ptr %2, align 8, !tbaa !95
  %3 = load ptr, ptr %2, align 8, !tbaa !95
  %4 = load i64, ptr %3, align 4
  %5 = lshr i64 %4, 62
  %6 = and i64 %5, 1
  %7 = trunc i64 %6 to i32
  ret i32 %7
}

; Function Attrs: inlinehint nounwind uwtable
define internal i32 @Gia_ObjId(ptr noundef %0, ptr noundef %1) #6 {
  %3 = alloca ptr, align 8
  %4 = alloca ptr, align 8
  store ptr %0, ptr %3, align 8, !tbaa !51
  store ptr %1, ptr %4, align 8, !tbaa !95
  %5 = load ptr, ptr %4, align 8, !tbaa !95
  %6 = load ptr, ptr %3, align 8, !tbaa !51
  %7 = getelementptr inbounds nuw %struct.Gia_Man_t_, ptr %6, i32 0, i32 6
  %8 = load ptr, ptr %7, align 8, !tbaa !162
  %9 = ptrtoint ptr %5 to i64
  %10 = ptrtoint ptr %8 to i64
  %11 = sub i64 %9, %10
  %12 = sdiv exact i64 %11, 12
  %13 = trunc i64 %12 to i32
  ret i32 %13
}

; Function Attrs: inlinehint nounwind uwtable
define internal i32 @Gia_ObjIsCi(ptr noundef %0) #6 {
  %2 = alloca ptr, align 8
  store ptr %0, ptr %2, align 8, !tbaa !95
  %3 = load ptr, ptr %2, align 8, !tbaa !95
  %4 = load i64, ptr %3, align 4
  %5 = lshr i64 %4, 31
  %6 = and i64 %5, 1
  %7 = trunc i64 %6 to i32
  %8 = icmp ne i32 %7, 0
  br i1 %8, label %9, label %15

9:                                                ; preds = %1
  %10 = load ptr, ptr %2, align 8, !tbaa !95
  %11 = load i64, ptr %10, align 4
  %12 = and i64 %11, 536870911
  %13 = trunc i64 %12 to i32
  %14 = icmp eq i32 %13, 536870911
  br label %15

15:                                               ; preds = %9, %1
  %16 = phi i1 [ false, %1 ], [ %14, %9 ]
  %17 = zext i1 %16 to i32
  ret i32 %17
}

; Function Attrs: inlinehint nounwind uwtable
define internal void @Vec_IntClear(ptr noundef %0) #6 {
  %2 = alloca ptr, align 8
  store ptr %0, ptr %2, align 8, !tbaa !65
  %3 = load ptr, ptr %2, align 8, !tbaa !65
  %4 = getelementptr inbounds nuw %struct.Vec_Int_t_, ptr %3, i32 0, i32 1
  store i32 0, ptr %4, align 4, !tbaa !66
  ret void
}

; Function Attrs: inlinehint nounwind uwtable
define internal void @CbsP_ManSaveModel(ptr noundef %0, ptr noundef %1) #6 {
  %3 = alloca ptr, align 8
  %4 = alloca ptr, align 8
  %5 = alloca ptr, align 8
  %6 = alloca i32, align 4
  store ptr %0, ptr %3, align 8, !tbaa !36
  store ptr %1, ptr %4, align 8, !tbaa !65
  call void @llvm.lifetime.start.p0(i64 8, ptr %5) #11
  call void @llvm.lifetime.start.p0(i64 4, ptr %6) #11
  %7 = load ptr, ptr %4, align 8, !tbaa !65
  call void @Vec_IntClear(ptr noundef %7)
  %8 = load ptr, ptr %3, align 8, !tbaa !36
  %9 = getelementptr inbounds nuw %struct.CbsP_Man_t_, ptr %8, i32 0, i32 2
  %10 = getelementptr inbounds nuw %struct.CbsP_Que_t_, ptr %9, i32 0, i32 0
  store i32 0, ptr %10, align 8, !tbaa !93
  %11 = load ptr, ptr %3, align 8, !tbaa !36
  %12 = getelementptr inbounds nuw %struct.CbsP_Man_t_, ptr %11, i32 0, i32 2
  %13 = getelementptr inbounds nuw %struct.CbsP_Que_t_, ptr %12, i32 0, i32 0
  %14 = load i32, ptr %13, align 8, !tbaa !93
  store i32 %14, ptr %6, align 4, !tbaa !38
  br label %15

15:                                               ; preds = %52, %2
  %16 = load i32, ptr %6, align 4, !tbaa !38
  %17 = load ptr, ptr %3, align 8, !tbaa !36
  %18 = getelementptr inbounds nuw %struct.CbsP_Man_t_, ptr %17, i32 0, i32 2
  %19 = getelementptr inbounds nuw %struct.CbsP_Que_t_, ptr %18, i32 0, i32 1
  %20 = load i32, ptr %19, align 4, !tbaa !94
  %21 = icmp slt i32 %16, %20
  br i1 %21, label %22, label %32

22:                                               ; preds = %15
  %23 = load ptr, ptr %3, align 8, !tbaa !36
  %24 = getelementptr inbounds nuw %struct.CbsP_Man_t_, ptr %23, i32 0, i32 2
  %25 = getelementptr inbounds nuw %struct.CbsP_Que_t_, ptr %24, i32 0, i32 3
  %26 = load ptr, ptr %25, align 8, !tbaa !55
  %27 = load i32, ptr %6, align 4, !tbaa !38
  %28 = sext i32 %27 to i64
  %29 = getelementptr inbounds ptr, ptr %26, i64 %28
  %30 = load ptr, ptr %29, align 8, !tbaa !95
  store ptr %30, ptr %5, align 8, !tbaa !95
  %31 = icmp ne ptr %30, null
  br label %32

32:                                               ; preds = %22, %15
  %33 = phi i1 [ false, %15 ], [ %31, %22 ]
  br i1 %33, label %34, label %55

34:                                               ; preds = %32
  %35 = load ptr, ptr %5, align 8, !tbaa !95
  %36 = call i32 @Gia_ObjIsCi(ptr noundef %35)
  %37 = icmp ne i32 %36, 0
  br i1 %37, label %38, label %51

38:                                               ; preds = %34
  %39 = load ptr, ptr %4, align 8, !tbaa !65
  %40 = load ptr, ptr %3, align 8, !tbaa !36
  %41 = getelementptr inbounds nuw %struct.CbsP_Man_t_, ptr %40, i32 0, i32 1
  %42 = load ptr, ptr %41, align 8, !tbaa !63
  %43 = load ptr, ptr %5, align 8, !tbaa !95
  %44 = call i32 @Gia_ObjId(ptr noundef %42, ptr noundef %43)
  %45 = load ptr, ptr %5, align 8, !tbaa !95
  %46 = call i32 @CbsP_VarValue(ptr noundef %45)
  %47 = icmp ne i32 %46, 0
  %48 = xor i1 %47, true
  %49 = zext i1 %48 to i32
  %50 = call i32 @Abc_Var2Lit(i32 noundef %44, i32 noundef %49)
  call void @Vec_IntPush(ptr noundef %39, i32 noundef %50)
  br label %51

51:                                               ; preds = %38, %34
  br label %52

52:                                               ; preds = %51
  %53 = load i32, ptr %6, align 4, !tbaa !38
  %54 = add nsw i32 %53, 1
  store i32 %54, ptr %6, align 4, !tbaa !38
  br label %15, !llvm.loop !129

55:                                               ; preds = %32
  call void @llvm.lifetime.end.p0(i64 4, ptr %6) #11
  call void @llvm.lifetime.end.p0(i64 8, ptr %5) #11
  ret void
}