; Function Attrs: inlinehint nounwind uwtable
define internal fastcc void @CbsP_ManSaveModel(ptr noundef captures(none) initializes((192, 196)) %0, ptr noundef captures(none) initializes((4, 8)) %1) unnamed_addr #15 {
  %3 = getelementptr inbounds nuw i8, ptr %1, i64 4
  store i32 0, ptr %3, align 4, !tbaa !52
  %4 = getelementptr inbounds nuw i8, ptr %0, i64 192
  store i32 0, ptr %4, align 8, !tbaa !82
  %5 = getelementptr inbounds nuw i8, ptr %0, i64 208
  %6 = getelementptr inbounds nuw i8, ptr %0, i64 196
  %7 = load i32, ptr %6, align 4, !tbaa !83
  %8 = icmp sgt i32 %7, 0
  br i1 %8, label %.lr.ph, label %.critedge

.lr.ph:                                           ; preds = %2
  %9 = getelementptr inbounds nuw i8, ptr %0, i64 184
  %.phi.trans.insert.i = getelementptr inbounds nuw i8, ptr %1, i64 8
  br label %10

10:                                               ; preds = %.lr.ph, %59
  %11 = phi i32 [ %7, %.lr.ph ], [ %60, %59 ]
  %indvars.iv = phi i64 [ 0, %.lr.ph ], [ %indvars.iv.next, %59 ]
  %12 = load ptr, ptr %5, align 8, !tbaa !47
  %13 = getelementptr inbounds nuw ptr, ptr %12, i64 %indvars.iv
  %14 = load ptr, ptr %13, align 8, !tbaa !84
  %.not = icmp eq ptr %14, null
  br i1 %.not, label %.critedge, label %15

15:                                               ; preds = %10
  %.val = load i64, ptr %14, align 4
  %16 = and i64 %.val, 2684354559
  %narrow.i.not = icmp eq i64 %16, 2684354559
  br i1 %narrow.i.not, label %17, label %59

17:                                               ; preds = %15
  %18 = load ptr, ptr %9, align 8, !tbaa !64
  %19 = getelementptr i8, ptr %18, i64 32
  %.val16 = load ptr, ptr %19, align 8, !tbaa !109
  %20 = ptrtoint ptr %14 to i64
  %21 = ptrtoint ptr %.val16 to i64
  %22 = sub i64 %20, %21
  %23 = sdiv exact i64 %22, 12
  %24 = trunc i64 %23 to i32
  %25 = lshr i64 %.val, 62
  %26 = trunc nuw nsw i64 %25 to i32
  %27 = and i32 %26, 1
  %28 = shl nsw i32 %24, 1
  %29 = or disjoint i32 %28, %27
  %30 = xor i32 %29, 1
  %31 = load i32, ptr %3, align 4, !tbaa !52
  %32 = load i32, ptr %1, align 8, !tbaa !55
  %33 = icmp eq i32 %31, %32
  br i1 %33, label %34, label %.Vec_IntGrow.exit10_crit_edge.i

.Vec_IntGrow.exit10_crit_edge.i:                  ; preds = %17
  %.pre.i = load ptr, ptr %.phi.trans.insert.i, align 8, !tbaa !56
  br label %Vec_IntPush.exit

34:                                               ; preds = %17
  %35 = icmp slt i32 %31, 16
  br i1 %35, label %36, label %43

36:                                               ; preds = %34
  %37 = load ptr, ptr %.phi.trans.insert.i, align 8, !tbaa !56
  %.not9.i.i = icmp eq ptr %37, null
  br i1 %.not9.i.i, label %40, label %38

38:                                               ; preds = %36
  %39 = tail call dereferenceable_or_null(64) ptr @realloc(ptr noundef nonnull %37, i64 noundef 64) #25
  br label %Vec_IntGrow.exit.i

40:                                               ; preds = %36
  %41 = tail call noalias dereferenceable_or_null(64) ptr @malloc(i64 noundef 64) #24
  br label %Vec_IntGrow.exit.i

Vec_IntGrow.exit.i:                               ; preds = %40, %38
  %42 = phi ptr [ %39, %38 ], [ %41, %40 ]
  store ptr %42, ptr %.phi.trans.insert.i, align 8, !tbaa !56
  store i32 16, ptr %1, align 8, !tbaa !55
  br label %Vec_IntPush.exit

43:                                               ; preds = %34
  %44 = shl nuw nsw i32 %31, 1
  %45 = load ptr, ptr %.phi.trans.insert.i, align 8, !tbaa !56
  %.not9.i9.i = icmp eq ptr %45, null
  %46 = zext nneg i32 %44 to i64
  %47 = shl nuw nsw i64 %46, 2
  br i1 %.not9.i9.i, label %50, label %48

48:                                               ; preds = %43
  %49 = tail call ptr @realloc(ptr noundef nonnull %45, i64 noundef %47) #25
  br label %52

50:                                               ; preds = %43
  %51 = tail call noalias ptr @malloc(i64 noundef %47) #24
  br label %52

52:                                               ; preds = %50, %48
  %53 = phi ptr [ %49, %48 ], [ %51, %50 ]
  store ptr %53, ptr %.phi.trans.insert.i, align 8, !tbaa !56
  store i32 %44, ptr %1, align 8, !tbaa !55
  br label %Vec_IntPush.exit

Vec_IntPush.exit:                                 ; preds = %.Vec_IntGrow.exit10_crit_edge.i, %Vec_IntGrow.exit.i, %52
  %54 = phi ptr [ %.pre.i, %.Vec_IntGrow.exit10_crit_edge.i ], [ %53, %52 ], [ %42, %Vec_IntGrow.exit.i ]
  %55 = load i32, ptr %3, align 4, !tbaa !52
  %56 = add nsw i32 %55, 1
  store i32 %56, ptr %3, align 4, !tbaa !52
  %57 = sext i32 %55 to i64
  %58 = getelementptr inbounds i32, ptr %54, i64 %57
  store i32 %30, ptr %58, align 4, !tbaa !81
  %.pre = load i32, ptr %6, align 4, !tbaa !83
  br label %59

59:                                               ; preds = %15, %Vec_IntPush.exit
  %60 = phi i32 [ %11, %15 ], [ %.pre, %Vec_IntPush.exit ]
  %indvars.iv.next = add nuw nsw i64 %indvars.iv, 1
  %61 = sext i32 %60 to i64
  %62 = icmp slt i64 %indvars.iv.next, %61
  br i1 %62, label %10, label %.critedge, !llvm.loop !119

.critedge:                                        ; preds = %10, %59, %2
  ret void
}